target datalayout = "e-m:e-p270:32:32-p271:32:32-p272:64:64-i64:64-i128:128-f80:128-n8:16:32:64-S128"
target triple = "x86_64-pc-linux-gnu"

%struct.sio_par = type { i32, i32, i32, i32, i32, i32, i32, i32, i32, i32, i32, i32, [3 x i32], i32 }
%struct.PaSndioStream = type { %struct.PaUtilStreamRepresentation, %struct.PaUtilBufferProcessor, ptr, %struct.sio_par, i32, i32, i32, i64, ptr, ptr, i64, i64, i64 }
%struct.PaUtilStreamRepresentation = type { i64, ptr, ptr, ptr, ptr, ptr, %struct.PaStreamInfo }
%struct.PaStreamInfo = type { i32, double, double, double }
%struct.PaUtilBufferProcessor = type { i64, i64, i32, i32, i32, i32, i64, i32, i32, i32, i32, ptr, ptr, i32, i32, i32, i32, ptr, ptr, i64, i64, ptr, ptr, i64, ptr, ptr, i64, ptr, i64, i32, [2 x i64], [2 x ptr], i32, [2 x i64], [2 x ptr], %struct.PaUtilTriangularDitherGenerator, double, ptr, ptr }
%struct.PaUtilTriangularDitherGenerator = type { i32, i32, i32 }

; Function Attrs: nounwind uwtable
define internal i32 @BlockingReadStream(ptr noundef %0, ptr noundef %1, i64 noundef %2) #0 {
  %4 = alloca i32, align 4
  %5 = alloca ptr, align 8
  %6 = alloca ptr, align 8
  %7 = alloca i64, align 8
  %8 = alloca ptr, align 8
  %9 = alloca i32, align 4
  %10 = alloca i32, align 4
  %11 = alloca i32, align 4
  %12 = alloca ptr, align 8
  store ptr %0, ptr %5, align 8
  store ptr %1, ptr %6, align 8
  store i64 %2, ptr %7, align 8
  %13 = load ptr, ptr %5, align 8
  store ptr %13, ptr %8, align 8
  br label %14

14:                                               ; preds = %97, %3
  %15 = load i64, ptr %7, align 8
  %16 = icmp ugt i64 %15, 0
  br i1 %16, label %17, label %102

17:                                               ; preds = %14
  %18 = load ptr, ptr %8, align 8
  %19 = getelementptr inbounds nuw %struct.PaSndioStream, ptr %18, i32 0, i32 3
  %20 = getelementptr inbounds nuw %struct.sio_par, ptr %19, i32 0, i32 10
  %21 = load i32, ptr %20, align 8
  store i32 %21, ptr %9, align 4
  %22 = load i32, ptr %9, align 4
  %23 = zext i32 %22 to i64
  %24 = load i64, ptr %7, align 8
  %25 = icmp ugt i64 %23, %24
  br i1 %25, label %26, label %29

26:                                               ; preds = %17
  %27 = load i64, ptr %7, align 8
  %28 = trunc i64 %27 to i32
  store i32 %28, ptr %9, align 4
  br label %29

29:                                               ; preds = %26, %17
  %30 = load ptr, ptr %8, align 8
  %31 = getelementptr inbounds nuw %struct.PaSndioStream, ptr %30, i32 0, i32 8
  %32 = load ptr, ptr %31, align 8
  store ptr %32, ptr %12, align 8
  %33 = load i32, ptr %9, align 4
  %34 = load ptr, ptr %8, align 8
  %35 = getelementptr inbounds nuw %struct.PaSndioStream, ptr %34, i32 0, i32 3
  %36 = getelementptr inbounds nuw %struct.sio_par, ptr %35, i32 0, i32 5
  %37 = load i32, ptr %36, align 4
  %38 = mul i32 %33, %37
  %39 = load ptr, ptr %8, align 8
  %40 = getelementptr inbounds nuw %struct.PaSndioStream, ptr %39, i32 0, i32 3
  %41 = getelementptr inbounds nuw %struct.sio_par, ptr %40, i32 0, i32 1
  %42 = load i32, ptr %41, align 4
  %43 = mul i32 %38, %42
  store i32 %43, ptr %11, align 4
  br label %44

44:                                               ; preds = %59, %29
  %45 = load i32, ptr %11, align 4
  %46 = icmp ugt i32 %45, 0
  br i1 %46, label %47, label %67

47:                                               ; preds = %44
  %48 = load ptr, ptr %8, align 8
  %49 = getelementptr inbounds nuw %struct.PaSndioStream, ptr %48, i32 0, i32 2
  %50 = load ptr, ptr %49, align 8
  %51 = load ptr, ptr %12, align 8
  %52 = load i32, ptr %11, align 4
  %53 = zext i32 %52 to i64
  %54 = call i64 @sio_read(ptr noundef %50, ptr noundef %51, i64 noundef %53)
  %55 = trunc i64 %54 to i32
  store i32 %55, ptr %10, align 4
  %56 = load i32, ptr %10, align 4
  %57 = icmp eq i32 %56, 0
  br i1 %57, label %58, label %59

58:                                               ; preds = %47
  store i32 -9999, ptr %4, align 4
  br label %103

59:                                               ; preds = %47
  %60 = load ptr, ptr %12, align 8
  %61 = load i32, ptr %10, align 4
  %62 = zext i32 %61 to i64
  %63 = getelementptr inbounds i8, ptr %60, i64 %62
  store ptr %63, ptr %12, align 8
  %64 = load i32, ptr %10, align 4
  %65 = load i32, ptr %11, align 4
  %66 = sub i32 %65, %64
  store i32 %66, ptr %11, align 4
  br label %44, !llvm.loop !7

67:                                               ; preds = %44
  %68 = load i32, ptr %9, align 4
  %69 = zext i32 %68 to i64
  %70 = load ptr, ptr %8, align 8
  %71 = getelementptr inbounds nuw %struct.PaSndioStream, ptr %70, i32 0, i32 10
  %72 = load i64, ptr %71, align 8
  %73 = add i64 %72, %69
  store i64 %73, ptr %71, align 8
  %74 = load ptr, ptr %8, align 8
  %75 = getelementptr inbounds nuw %struct.PaSndioStream, ptr %74, i32 0, i32 1
  %76 = load i32, ptr %9, align 4
  %77 = zext i32 %76 to i64
  call void @PaUtil_SetInputFrameCount(ptr noundef %75, i64 noundef %77)
  %78 = load ptr, ptr %8, align 8
  %79 = getelementptr inbounds nuw %struct.PaSndioStream, ptr %78, i32 0, i32 1
  %80 = load ptr, ptr %8, align 8
  %81 = getelementptr inbounds nuw %struct.PaSndioStream, ptr %80, i32 0, i32 8
  %82 = load ptr, ptr %81, align 8
  %83 = load ptr, ptr %8, align 8
  %84 = getelementptr inbounds nuw %struct.PaSndioStream, ptr %83, i32 0, i32 3
  %85 = getelementptr inbounds nuw %struct.sio_par, ptr %84, i32 0, i32 5
  %86 = load i32, ptr %85, align 4
  call void @PaUtil_SetInterleavedInputChannels(ptr noundef %79, i32 noundef 0, ptr noundef %82, i32 noundef %86)
  %87 = load ptr, ptr %8, align 8
  %88 = getelementptr inbounds nuw %struct.PaSndioStream, ptr %87, i32 0, i32 1
  %89 = load i32, ptr %9, align 4
  %90 = zext i32 %89 to i64
  %91 = call i64 @PaUtil_CopyInput(ptr noundef %88, ptr noundef %6, i64 noundef %90)
  %92 = trunc i64 %91 to i32
  store i32 %92, ptr %10, align 4
  %93 = load i32, ptr %10, align 4
  %94 = load i32, ptr %9, align 4
  %95 = icmp ne i32 %93, %94
  br i1 %95, label %96, label %97

96:                                               ; preds = %67
  store i32 -9999, ptr %4, align 4
  br label %103

97:                                               ; preds = %67
  %98 = load i32, ptr %9, align 4
  %99 = zext i32 %98 to i64
  %100 = load i64, ptr %7, align 8
  %101 = sub i64 %100, %99
  store i64 %101, ptr %7, align 8
  br label %14, !llvm.loop !8

102:                                              ; preds = %14
  store i32 0, ptr %4, align 4
  br label %103

103:                                              ; preds = %102, %96, %58
  %104 = load i32, ptr %4, align 4
  ret i32 %104
}