; Function Attrs: nounwind uwtable
define internal range(i32 -9999, 1) i32 @BlockingReadStream(ptr noundef %0, ptr noundef %1, i64 noundef %2) #0 {
  %4 = alloca ptr, align 8
  store ptr %1, ptr %4, align 8
  %.not43 = icmp eq i64 %2, 0
  br i1 %.not43, label %.loopexit, label %.lr.ph46

.lr.ph46:                                         ; preds = %3
  %5 = getelementptr inbounds i8, ptr %0, i64 432
  %6 = getelementptr inbounds nuw i8, ptr %0, i64 480
  %7 = getelementptr inbounds i8, ptr %0, i64 412
  %8 = getelementptr inbounds i8, ptr %0, i64 396
  %9 = getelementptr inbounds nuw i8, ptr %0, i64 384
  %10 = getelementptr inbounds nuw i8, ptr %0, i64 496
  %11 = getelementptr inbounds nuw i8, ptr %0, i64 80
  br label %14

12:                                               ; preds = %._crit_edge
  %13 = sub i64 %.03544, %33
  %.not = icmp eq i64 %13, 0
  br i1 %.not, label %.loopexit, label %14, !llvm.loop !7

14:                                               ; preds = %.lr.ph46, %12
  %.03544 = phi i64 [ %2, %.lr.ph46 ], [ %13, %12 ]
  %15 = load i32, ptr %5, align 8
  %16 = zext i32 %15 to i64
  %17 = icmp ult i64 %.03544, %16
  %18 = trunc nuw i64 %.03544 to i32
  %spec.select = select i1 %17, i32 %18, i32 %15
  %19 = load i32, ptr %7, align 4
  %20 = mul i32 %spec.select, %19
  %21 = load i32, ptr %8, align 4
  %22 = mul i32 %20, %21
  %.not3740 = icmp eq i32 %22, 0
  br i1 %.not3740, label %._crit_edge, label %.lr.ph.preheader

.lr.ph.preheader:                                 ; preds = %14
  %23 = load ptr, ptr %6, align 8
  br label %.lr.ph

.lr.ph:                                           ; preds = %.lr.ph.preheader, %29
  %.042 = phi ptr [ %31, %29 ], [ %23, %.lr.ph.preheader ]
  %.03241 = phi i32 [ %32, %29 ], [ %22, %.lr.ph.preheader ]
  %24 = load ptr, ptr %9, align 8
  %25 = zext i32 %.03241 to i64
  %26 = call i64 @sio_read(ptr noundef %24, ptr noundef %.042, i64 noundef %25) #16
  %27 = trunc i64 %26 to i32
  %28 = icmp eq i32 %27, 0
  br i1 %28, label %.loopexit, label %29

29:                                               ; preds = %.lr.ph
  %30 = and i64 %26, 4294967295
  %31 = getelementptr inbounds i8, ptr %.042, i64 %30
  %32 = sub i32 %.03241, %27
  %.not37 = icmp eq i32 %32, 0
  br i1 %.not37, label %._crit_edge, label %.lr.ph, !llvm.loop !8

._crit_edge:                                      ; preds = %29, %14
  %33 = zext i32 %spec.select to i64
  %34 = load i64, ptr %10, align 8
  %35 = add i64 %34, %33
  store i64 %35, ptr %10, align 8
  call void @PaUtil_SetInputFrameCount(ptr noundef nonnull %11, i64 noundef %33) #16
  %36 = load ptr, ptr %6, align 8
  %37 = load i32, ptr %7, align 4
  call void @PaUtil_SetInterleavedInputChannels(ptr noundef nonnull %11, i32 noundef 0, ptr noundef %36, i32 noundef %37) #16
  %38 = call i64 @PaUtil_CopyInput(ptr noundef nonnull %11, ptr noundef nonnull %4, i64 noundef %33) #16
  %39 = trunc i64 %38 to i32
  %.not38 = icmp eq i32 %spec.select, %39
  br i1 %.not38, label %12, label %.loopexit

.loopexit:                                        ; preds = %._crit_edge, %12, %.lr.ph, %3
  %.034 = phi i32 [ 0, %3 ], [ -9999, %.lr.ph ], [ -9999, %._crit_edge ], [ 0, %12 ]
  ret i32 %.034
}